; Function Attrs: mustprogress nounwind uwtable
define internal fastcc noundef ptr @_ZN12_GLOBAL__N_18ASTMaker18makeIntegerLiteralEmN5clang8QualTypeE(ptr nocapture noundef nonnull readonly align 8 dereferenceable(8) %0, i64 noundef %1, i64 %2) unnamed_addr #0 align 2 {
  %4 = alloca %"class.llvm::APInt", align 8
  %5 = load ptr, ptr %0, align 8
  %6 = and i64 %2, -16
  %7 = inttoptr i64 %6 to ptr
  %8 = load ptr, ptr %7, align 16
  %9 = tail call { i64, i64 } @_ZNK5clang10ASTContext11getTypeInfoEPKNS_4TypeE(ptr noundef nonnull align 8 dereferenceable(23096) %5, ptr noundef %8) #10
  %10 = extractvalue { i64, i64 } %9, 0
  %11 = trunc i64 %10 to i32
  %12 = getelementptr inbounds nuw i8, ptr %4, i64 8
  store i32 %11, ptr %12, align 8
  %13 = icmp ult i32 %11, 65
  br i1 %13, label %14, label %21

14:                                               ; preds = %3
  %15 = add nuw nsw i64 %10, 63
  %16 = and i64 %15, 63
  %17 = xor i64 %16, 63
  %18 = lshr i64 -1, %17
  %19 = icmp eq i32 %11, 0
  %spec.store.select.i.i = select i1 %19, i64 0, i64 %18
  %20 = and i64 %spec.store.select.i.i, %1
  store i64 %20, ptr %4, align 8
  br label %_ZN4llvm5APIntC2Ejmbb.exit

21:                                               ; preds = %3
  call void @_ZN4llvm5APInt12initSlowCaseEmb(ptr noundef nonnull align 8 dereferenceable(12) %4, i64 noundef %1, i1 noundef zeroext false) #10
  br label %_ZN4llvm5APIntC2Ejmbb.exit

_ZN4llvm5APIntC2Ejmbb.exit:                       ; preds = %14, %21
  %22 = load ptr, ptr %0, align 8
  %23 = call noundef ptr @_ZN5clang14IntegerLiteral6CreateERKNS_10ASTContextERKN4llvm5APIntENS_8QualTypeENS_14SourceLocationE(ptr noundef nonnull align 8 dereferenceable(23096) %22, ptr noundef nonnull align 8 dereferenceable(12) %4, i64 %2, i32 0) #10
  %24 = load i32, ptr %12, align 8
  %25 = icmp ugt i32 %24, 64
  br i1 %25, label %26, label %_ZN4llvm5APIntD2Ev.exit

26:                                               ; preds = %_ZN4llvm5APIntC2Ejmbb.exit
  %27 = load ptr, ptr %4, align 8
  %28 = icmp eq ptr %27, null
  br i1 %28, label %_ZN4llvm5APIntD2Ev.exit, label %29

29:                                               ; preds = %26
  call void @_ZdaPv(ptr noundef nonnull %27) #11
  br label %_ZN4llvm5APIntD2Ev.exit

_ZN4llvm5APIntD2Ev.exit:                          ; preds = %_ZN4llvm5APIntC2Ejmbb.exit, %26, %29
  ret ptr %23
}